; Function Attrs: mustprogress uwtable
define hidden void @_ZN3api7context20invoke_error_handlerE13Z3_error_code(ptr noundef nonnull align 8 dereferenceable(3056) %0, i32 noundef %1) local_unnamed_addr #3 align 2 {
  %3 = getelementptr inbounds nuw i8, ptr %0, i64 1576
  %4 = load ptr, ptr %3, align 8, !tbaa !250
  %.not = icmp eq ptr %4, null
  br i1 %.not, label %7, label %5

5:                                                ; preds = %2
  tail call void @_Z18ctx_enable_loggingv()
  %6 = load ptr, ptr %3, align 8, !tbaa !250
  tail call void %6(ptr noundef nonnull %0, i32 noundef %1)
  br label %7

7:                                                ; preds = %5, %2
  ret void
}